; Function Attrs: nofree norecurse nosync nounwind sspstrong memory(argmem: readwrite) uwtable
define internal i64 @pm_encoding_cesu_8_alpha_char(ptr noundef readonly captures(none) %0, i64 noundef %1) #5 {
  %3 = alloca i64, align 8
  %4 = load i8, ptr %0, align 1, !tbaa !7
  %5 = icmp sgt i8 %4, -1
  br i1 %5, label %6, label %12

6:                                                ; preds = %2
  %7 = zext nneg i8 %4 to i64
  %8 = getelementptr [256 x i8], ptr @pm_encoding_unicode_table, i64 0, i64 %7
  %9 = load i8, ptr %8, align 1, !tbaa !7
  %10 = and i8 %9, 1
  %11 = zext nneg i8 %10 to i64
  br label %35

12:                                               ; preds = %2
  call void @llvm.lifetime.start.p0(i64 8, ptr nonnull %3) #9
  %13 = call fastcc i32 @pm_cesu_8_codepoint(ptr noundef nonnull %0, i64 noundef %1, ptr noundef %3)
  %14 = icmp samesign ult i32 %13, 256
  br i1 %14, label %15, label %.preheader

15:                                               ; preds = %12
  %16 = zext nneg i32 %13 to i64
  %17 = getelementptr [256 x i8], ptr @pm_encoding_unicode_table, i64 0, i64 %16
  %18 = load i8, ptr %17, align 1, !tbaa !7
  %19 = and i8 %18, 1
  %.not = icmp eq i8 %19, 0
  %20 = load i64, ptr %3, align 8
  %21 = select i1 %.not, i64 0, i64 %20
  br label %pm_unicode_codepoint_match.exit

.preheader:                                       ; preds = %12, %30
  %.02135.i = phi i64 [ %.2.i, %30 ], [ 1450, %12 ]
  %.02234.i = phi i64 [ %.224.i, %30 ], [ 0, %12 ]
  %22 = sub nuw i64 %.02135.i, %.02234.i
  %23 = lshr i64 %22, 1
  %24 = add i64 %23, %.02234.i
  %spec.select.i = and i64 %24, -2
  %25 = getelementptr i32, ptr @unicode_alpha_codepoints, i64 %spec.select.i
  %26 = load i32, ptr %25, align 8, !tbaa !13
  %.not29.i = icmp ult i32 %13, %26
  br i1 %.not29.i, label %30, label %27

27:                                               ; preds = %.preheader
  %28 = getelementptr i8, ptr %25, i64 4
  %29 = load i32, ptr %28, align 4, !tbaa !13
  %.not30.i = icmp ugt i32 %13, %29
  br i1 %.not30.i, label %30, label %33

30:                                               ; preds = %27, %.preheader
  %.2.i = phi i64 [ %spec.select.i, %.preheader ], [ %.02135.i, %27 ]
  %31 = add i64 %spec.select.i, 2
  %.224.i = select i1 %.not29.i, i64 %.02234.i, i64 %31
  %32 = icmp ult i64 %.224.i, %.2.i
  br i1 %32, label %.preheader, label %pm_unicode_codepoint_match.exit, !llvm.loop !15

33:                                               ; preds = %27
  %34 = load i64, ptr %3, align 8
  br label %pm_unicode_codepoint_match.exit

pm_unicode_codepoint_match.exit:                  ; preds = %30, %33, %15
  %.1 = phi i64 [ %21, %15 ], [ %34, %33 ], [ 0, %30 ]
  call void @llvm.lifetime.end.p0(i64 8, ptr nonnull %3) #9
  br label %35

35:                                               ; preds = %pm_unicode_codepoint_match.exit, %6
  %.0 = phi i64 [ %11, %6 ], [ %.1, %pm_unicode_codepoint_match.exit ]
  ret i64 %.0
}